; Function Attrs: nofree norecurse nosync nounwind memory(read, inaccessiblemem: none) uwtable
define range(i32 0, 2) i32 @Saig_ManStatesAreEqual(ptr noundef readonly captures(none) %0, ptr noundef readonly captures(none) %1, i32 noundef %2, i32 noundef %3, i32 noundef %4) local_unnamed_addr #0 {
  %6 = getelementptr i8, ptr %1, i64 8
  %.val = load ptr, ptr %6, align 8, !tbaa !3
  %7 = mul nsw i32 %3, %2
  %8 = sext i32 %7 to i64
  %9 = getelementptr inbounds i32, ptr %.val, i64 %8
  %10 = mul nsw i32 %4, %2
  %11 = sext i32 %10 to i64
  %12 = getelementptr inbounds i32, ptr %.val, i64 %11
  %13 = icmp sgt i32 %2, 0
  br i1 %13, label %.lr.ph.preheader, label %.loopexit

.lr.ph.preheader:                                 ; preds = %5
  %wide.trip.count = zext nneg i32 %2 to i64
  br label %.lr.ph

.lr.ph33:                                         ; preds = %22
  %14 = getelementptr i8, ptr %0, i64 328
  %wide.trip.count41 = zext nneg i32 %2 to i64
  br label %23

.lr.ph:                                           ; preds = %.lr.ph.preheader, %22
  %indvars.iv = phi i64 [ 0, %.lr.ph.preheader ], [ %indvars.iv.next, %22 ]
  %15 = getelementptr inbounds nuw i32, ptr %9, i64 %indvars.iv
  %16 = load i32, ptr %15, align 4, !tbaa !10
  %17 = icmp sgt i32 %16, -1
  br i1 %17, label %18, label %22

18:                                               ; preds = %.lr.ph
  %19 = getelementptr inbounds nuw i32, ptr %12, i64 %indvars.iv
  %20 = load i32, ptr %19, align 4, !tbaa !10
  %21 = icmp eq i32 %20, -1
  br i1 %21, label %.loopexit, label %22

22:                                               ; preds = %.lr.ph, %18
  %indvars.iv.next = add nuw nsw i64 %indvars.iv, 1
  %exitcond.not = icmp eq i64 %indvars.iv.next, %wide.trip.count
  br i1 %exitcond.not, label %.lr.ph33, label %.lr.ph, !llvm.loop !11

23:                                               ; preds = %.lr.ph33, %38
  %indvars.iv38 = phi i64 [ 0, %.lr.ph33 ], [ %indvars.iv.next39, %38 ]
  %24 = getelementptr inbounds nuw i32, ptr %9, i64 %indvars.iv38
  %25 = load i32, ptr %24, align 4, !tbaa !10
  %26 = icmp sgt i32 %25, -1
  br i1 %26, label %27, label %38

27:                                               ; preds = %23
  %.val28 = load ptr, ptr %14, align 8, !tbaa !13
  %28 = zext nneg i32 %25 to i64
  %29 = getelementptr inbounds nuw i32, ptr %.val28, i64 %28
  %30 = load i32, ptr %29, align 4, !tbaa !10
  %31 = icmp eq i32 %30, 1
  %32 = getelementptr inbounds nuw i32, ptr %12, i64 %indvars.iv38
  %33 = load i32, ptr %32, align 4, !tbaa !10
  %34 = sext i32 %33 to i64
  %35 = getelementptr inbounds i32, ptr %.val28, i64 %34
  %36 = load i32, ptr %35, align 4, !tbaa !10
  %37 = icmp ne i32 %36, 1
  %.not = xor i1 %31, %37
  br i1 %.not, label %38, label %.loopexit

38:                                               ; preds = %23, %27
  %indvars.iv.next39 = add nuw nsw i64 %indvars.iv38, 1
  %exitcond42.not = icmp eq i64 %indvars.iv.next39, %wide.trip.count41
  br i1 %exitcond42.not, label %.loopexit, label %23, !llvm.loop !27

.loopexit:                                        ; preds = %18, %27, %38, %5
  %.024 = phi i32 [ 1, %5 ], [ 0, %27 ], [ 1, %38 ], [ 0, %18 ]
  ret i32 %.024
}